target datalayout = "e-m:e-p270:32:32-p271:32:32-p272:64:64-i64:64-i128:128-f80:128-n8:16:32:64-S128"
target triple = "x86_64-pc-linux-gnu"

%struct.X509_pubkey_st = type { ptr, ptr, ptr, ptr, ptr, i8 }
%struct.asn1_string_st = type { i32, i32, ptr, i64 }

@.str = private unnamed_addr constant [34 x i8] c"../openssl/crypto/x509/x_pubkey.c\00", align 1
@__func__.X509_PUBKEY_dup = private unnamed_addr constant [16 x i8] c"X509_PUBKEY_dup\00", align 1
@X509_PUBKEY_INTERNAL_it.local_it = internal constant { i8, [7 x i8], i64, ptr, i64, ptr, i64, ptr } { i8 1, [7 x i8] zeroinitializer, i64 16, ptr @X509_PUBKEY_INTERNAL_seq_tt, i64 2, ptr null, i64 48, ptr @.str.1 }, align 8

; Function Attrs: nounwind uwtable
define internal ptr @X509_PUBKEY_INTERNAL_it() #0 {
  ret ptr @X509_PUBKEY_INTERNAL_it.local_it
}

; Function Attrs: nounwind uwtable
define internal i32 @x509_pubkey_set0_libctx(ptr noundef %0, ptr noundef %1, ptr noundef %2) #0 {
  %4 = alloca i32, align 4
  %5 = alloca ptr, align 8
  %6 = alloca ptr, align 8
  %7 = alloca ptr, align 8
  store ptr %0, ptr %5, align 8, !tbaa !14
  store ptr %1, ptr %6, align 8, !tbaa !10
  store ptr %2, ptr %7, align 8, !tbaa !12
  %8 = load ptr, ptr %5, align 8, !tbaa !14
  %9 = icmp ne ptr %8, null
  br i1 %9, label %10, label %33

10:                                               ; preds = %3
  %11 = load ptr, ptr %6, align 8, !tbaa !10
  %12 = load ptr, ptr %5, align 8, !tbaa !14
  %13 = getelementptr inbounds nuw %struct.X509_pubkey_st, ptr %12, i32 0, i32 3
  store ptr %11, ptr %13, align 8, !tbaa !18
  %14 = load ptr, ptr %5, align 8, !tbaa !14
  %15 = getelementptr inbounds nuw %struct.X509_pubkey_st, ptr %14, i32 0, i32 4
  %16 = load ptr, ptr %15, align 8, !tbaa !24
  call void @CRYPTO_free(ptr noundef %16, ptr noundef @.str, i32 noundef 52)
  %17 = load ptr, ptr %5, align 8, !tbaa !14
  %18 = getelementptr inbounds nuw %struct.X509_pubkey_st, ptr %17, i32 0, i32 4
  store ptr null, ptr %18, align 8, !tbaa !24
  %19 = load ptr, ptr %7, align 8, !tbaa !12
  %20 = icmp ne ptr %19, null
  br i1 %20, label %21, label %32

21:                                               ; preds = %10
  %22 = load ptr, ptr %7, align 8, !tbaa !12
  %23 = call noalias ptr @CRYPTO_strdup(ptr noundef %22, ptr noundef @.str, i32 noundef 55)
  %24 = load ptr, ptr %5, align 8, !tbaa !14
  %25 = getelementptr inbounds nuw %struct.X509_pubkey_st, ptr %24, i32 0, i32 4
  store ptr %23, ptr %25, align 8, !tbaa !24
  %26 = load ptr, ptr %5, align 8, !tbaa !14
  %27 = getelementptr inbounds nuw %struct.X509_pubkey_st, ptr %26, i32 0, i32 4
  %28 = load ptr, ptr %27, align 8, !tbaa !24
  %29 = icmp eq ptr %28, null
  br i1 %29, label %30, label %31

30:                                               ; preds = %21
  store i32 0, ptr %4, align 4
  br label %34

31:                                               ; preds = %21
  br label %32

32:                                               ; preds = %31, %10
  br label %33

33:                                               ; preds = %32, %3
  store i32 1, ptr %4, align 4
  br label %34

34:                                               ; preds = %33, %30
  %35 = load i32, ptr %4, align 4
  ret i32 %35
}

; Function Attrs: nounwind uwtable
define ptr @X509_PUBKEY_dup(ptr noundef %0) #0 {
  %2 = alloca ptr, align 8
  %3 = alloca ptr, align 8
  %4 = alloca ptr, align 8
  %5 = alloca i32, align 4
  store ptr %0, ptr %3, align 8, !tbaa !14
  call void @llvm.lifetime.start.p0(i64 8, ptr %4) #5
  %6 = call noalias ptr @CRYPTO_zalloc(i64 noundef 48, ptr noundef @.str, i32 noundef 285)
  store ptr %6, ptr %4, align 8, !tbaa !14
  %7 = load ptr, ptr %4, align 8, !tbaa !14
  %8 = icmp eq ptr %7, null
  br i1 %8, label %9, label %10

9:                                                ; preds = %1
  store ptr null, ptr %2, align 8
  store i32 1, ptr %5, align 4
  br label %89

10:                                               ; preds = %1
  %11 = load ptr, ptr %4, align 8, !tbaa !14
  %12 = load ptr, ptr %3, align 8, !tbaa !14
  %13 = getelementptr inbounds nuw %struct.X509_pubkey_st, ptr %12, i32 0, i32 3
  %14 = load ptr, ptr %13, align 8, !tbaa !18
  %15 = load ptr, ptr %3, align 8, !tbaa !14
  %16 = getelementptr inbounds nuw %struct.X509_pubkey_st, ptr %15, i32 0, i32 4
  %17 = load ptr, ptr %16, align 8, !tbaa !24
  %18 = call i32 @x509_pubkey_set0_libctx(ptr noundef %11, ptr noundef %14, ptr noundef %17)
  %19 = icmp ne i32 %18, 0
  br i1 %19, label %22, label %20

20:                                               ; preds = %10
  call void @ERR_new()
  call void @ERR_set_debug(ptr noundef @.str, i32 noundef 290, ptr noundef @__func__.X509_PUBKEY_dup)
  call void (i32, i32, ptr, ...) @ERR_set_error(i32 noundef 11, i32 noundef 524299, ptr noundef null)
  %21 = call ptr @X509_PUBKEY_INTERNAL_it()
  call void @x509_pubkey_ex_free(ptr noundef %4, ptr noundef %21)
  store ptr null, ptr %2, align 8
  store i32 1, ptr %5, align 4
  br label %89

22:                                               ; preds = %10
  %23 = load ptr, ptr %3, align 8, !tbaa !14
  %24 = getelementptr inbounds nuw %struct.X509_pubkey_st, ptr %23, i32 0, i32 0
  %25 = load ptr, ptr %24, align 8, !tbaa !25
  %26 = call ptr @X509_ALGOR_dup(ptr noundef %25)
  %27 = load ptr, ptr %4, align 8, !tbaa !14
  %28 = getelementptr inbounds nuw %struct.X509_pubkey_st, ptr %27, i32 0, i32 0
  store ptr %26, ptr %28, align 8, !tbaa !25
  %29 = icmp eq ptr %26, null
  br i1 %29, label %51, label %30

30:                                               ; preds = %22
  %31 = call ptr @ASN1_BIT_STRING_new()
  %32 = load ptr, ptr %4, align 8, !tbaa !14
  %33 = getelementptr inbounds nuw %struct.X509_pubkey_st, ptr %32, i32 0, i32 1
  store ptr %31, ptr %33, align 8, !tbaa !26
  %34 = icmp eq ptr %31, null
  br i1 %34, label %51, label %35

35:                                               ; preds = %30
  %36 = load ptr, ptr %4, align 8, !tbaa !14
  %37 = getelementptr inbounds nuw %struct.X509_pubkey_st, ptr %36, i32 0, i32 1
  %38 = load ptr, ptr %37, align 8, !tbaa !26
  %39 = load ptr, ptr %3, align 8, !tbaa !14
  %40 = getelementptr inbounds nuw %struct.X509_pubkey_st, ptr %39, i32 0, i32 1
  %41 = load ptr, ptr %40, align 8, !tbaa !26
  %42 = getelementptr inbounds nuw %struct.asn1_string_st, ptr %41, i32 0, i32 2
  %43 = load ptr, ptr %42, align 8, !tbaa !27
  %44 = load ptr, ptr %3, align 8, !tbaa !14
  %45 = getelementptr inbounds nuw %struct.X509_pubkey_st, ptr %44, i32 0, i32 1
  %46 = load ptr, ptr %45, align 8, !tbaa !26
  %47 = getelementptr inbounds nuw %struct.asn1_string_st, ptr %46, i32 0, i32 0
  %48 = load i32, ptr %47, align 8, !tbaa !29
  %49 = call i32 @ASN1_BIT_STRING_set(ptr noundef %38, ptr noundef %43, i32 noundef %48)
  %50 = icmp ne i32 %49, 0
  br i1 %50, label %53, label %51

51:                                               ; preds = %35, %30, %22
  %52 = call ptr @X509_PUBKEY_INTERNAL_it()
  call void @x509_pubkey_ex_free(ptr noundef %4, ptr noundef %52)
  call void @ERR_new()
  call void @ERR_set_debug(ptr noundef @.str, i32 noundef 302, ptr noundef @__func__.X509_PUBKEY_dup)
  call void (i32, i32, ptr, ...) @ERR_set_error(i32 noundef 11, i32 noundef 524301, ptr noundef null)
  store ptr null, ptr %2, align 8
  store i32 1, ptr %5, align 4
  br label %89

53:                                               ; preds = %35
  %54 = load ptr, ptr %3, align 8, !tbaa !14
  %55 = getelementptr inbounds nuw %struct.X509_pubkey_st, ptr %54, i32 0, i32 2
  %56 = load ptr, ptr %55, align 8, !tbaa !30
  %57 = icmp ne ptr %56, null
  br i1 %57, label %58, label %87

58:                                               ; preds = %53
  %59 = call i32 @ERR_set_mark()
  %60 = load ptr, ptr %3, align 8, !tbaa !14
  %61 = getelementptr inbounds nuw %struct.X509_pubkey_st, ptr %60, i32 0, i32 2
  %62 = load ptr, ptr %61, align 8, !tbaa !30
  %63 = call ptr @EVP_PKEY_dup(ptr noundef %62)
  %64 = load ptr, ptr %4, align 8, !tbaa !14
  %65 = getelementptr inbounds nuw %struct.X509_pubkey_st, ptr %64, i32 0, i32 2
  store ptr %63, ptr %65, align 8, !tbaa !30
  %66 = load ptr, ptr %4, align 8, !tbaa !14
  %67 = getelementptr inbounds nuw %struct.X509_pubkey_st, ptr %66, i32 0, i32 2
  %68 = load ptr, ptr %67, align 8, !tbaa !30
  %69 = icmp eq ptr %68, null
  br i1 %69, label %70, label %85

70:                                               ; preds = %58
  %71 = load ptr, ptr %4, align 8, !tbaa !14
  %72 = getelementptr inbounds nuw %struct.X509_pubkey_st, ptr %71, i32 0, i32 5
  %73 = load i8, ptr %72, align 8
  %74 = and i8 %73, -2
  %75 = or i8 %74, 1
  store i8 %75, ptr %72, align 8
  %76 = load ptr, ptr %4, align 8, !tbaa !14
  %77 = getelementptr inbounds nuw %struct.X509_pubkey_st, ptr %76, i32 0, i32 2
  %78 = load ptr, ptr %4, align 8, !tbaa !14
  %79 = call i32 @x509_pubkey_decode(ptr noundef %77, ptr noundef %78)
  %80 = icmp sle i32 %79, 0
  br i1 %80, label %81, label %84

81:                                               ; preds = %70
  %82 = call ptr @X509_PUBKEY_INTERNAL_it()
  call void @x509_pubkey_ex_free(ptr noundef %4, ptr noundef %82)
  %83 = call i32 @ERR_clear_last_mark()
  store ptr null, ptr %2, align 8
  store i32 1, ptr %5, align 4
  br label %89

84:                                               ; preds = %70
  br label %85

85:                                               ; preds = %84, %58
  %86 = call i32 @ERR_pop_to_mark()
  br label %87

87:                                               ; preds = %85, %53
  %88 = load ptr, ptr %4, align 8, !tbaa !14
  store ptr %88, ptr %2, align 8
  store i32 1, ptr %5, align 4
  br label %89

89:                                               ; preds = %87, %81, %51, %20, %9
  call void @llvm.lifetime.end.p0(i64 8, ptr %4) #5
  %90 = load ptr, ptr %2, align 8
  ret ptr %90
}