; Function Attrs: nounwind uwtable
define ptr @X509_PUBKEY_dup(ptr noundef readonly captures(none) %0) local_unnamed_addr #0 {
  %2 = alloca ptr, align 8
  call void @llvm.lifetime.start.p0(i64 8, ptr nonnull %2) #9
  %3 = tail call noalias ptr @CRYPTO_zalloc(i64 noundef 48, ptr noundef nonnull @.str, i32 noundef 285) #9
  store ptr %3, ptr %2, align 8, !tbaa !3
  %4 = icmp eq ptr %3, null
  br i1 %4, label %x509_pubkey_ex_free.exit, label %5

5:                                                ; preds = %1
  %6 = getelementptr inbounds nuw i8, ptr %0, i64 24
  %7 = load ptr, ptr %6, align 8, !tbaa !8
  %8 = getelementptr inbounds nuw i8, ptr %0, i64 32
  %9 = load ptr, ptr %8, align 8, !tbaa !16
  %10 = getelementptr inbounds nuw i8, ptr %3, i64 24
  store ptr %7, ptr %10, align 8, !tbaa !8
  %11 = getelementptr inbounds nuw i8, ptr %3, i64 32
  %12 = load ptr, ptr %11, align 8, !tbaa !16
  tail call void @CRYPTO_free(ptr noundef %12, ptr noundef nonnull @.str, i32 noundef 52) #9
  store ptr null, ptr %11, align 8, !tbaa !16
  %.not11.i = icmp eq ptr %9, null
  br i1 %.not11.i, label %x509_pubkey_set0_libctx.exit, label %13

13:                                               ; preds = %5
  %14 = tail call noalias ptr @CRYPTO_strdup(ptr noundef nonnull %9, ptr noundef nonnull @.str, i32 noundef 55) #9
  store ptr %14, ptr %11, align 8, !tbaa !16
  %15 = icmp eq ptr %14, null
  br i1 %15, label %16, label %x509_pubkey_set0_libctx.exit

16:                                               ; preds = %13
  tail call void @ERR_new() #9
  tail call void @ERR_set_debug(ptr noundef nonnull @.str, i32 noundef 290, ptr noundef nonnull @__func__.X509_PUBKEY_dup) #9
  tail call void (i32, i32, ptr, ...) @ERR_set_error(i32 noundef 11, i32 noundef 524299, ptr noundef null) #9
  %17 = load ptr, ptr %3, align 8, !tbaa !17
  tail call void @X509_ALGOR_free(ptr noundef %17) #9
  %18 = getelementptr inbounds nuw i8, ptr %3, i64 8
  %19 = load ptr, ptr %18, align 8, !tbaa !18
  tail call void @ASN1_BIT_STRING_free(ptr noundef %19) #9
  %20 = getelementptr inbounds nuw i8, ptr %3, i64 16
  %21 = load ptr, ptr %20, align 8, !tbaa !19
  tail call void @EVP_PKEY_free(ptr noundef %21) #9
  %22 = load ptr, ptr %11, align 8, !tbaa !16
  tail call void @CRYPTO_free(ptr noundef %22, ptr noundef nonnull @.str, i32 noundef 94) #9
  tail call void @CRYPTO_free(ptr noundef nonnull %3, ptr noundef nonnull @.str, i32 noundef 95) #9
  br label %x509_pubkey_ex_free.exit

x509_pubkey_set0_libctx.exit:                     ; preds = %13, %5
  %23 = load ptr, ptr %0, align 8, !tbaa !17
  %24 = tail call ptr @X509_ALGOR_dup(ptr noundef %23) #9
  store ptr %24, ptr %3, align 8, !tbaa !17
  %25 = icmp eq ptr %24, null
  br i1 %25, label %x509_pubkey_ex_free.exit14, label %26

26:                                               ; preds = %x509_pubkey_set0_libctx.exit
  %27 = tail call ptr @ASN1_BIT_STRING_new() #9
  %28 = getelementptr inbounds nuw i8, ptr %3, i64 8
  store ptr %27, ptr %28, align 8, !tbaa !18
  %29 = icmp eq ptr %27, null
  br i1 %29, label %x509_pubkey_ex_free.exit14, label %30

30:                                               ; preds = %26
  %31 = getelementptr inbounds nuw i8, ptr %0, i64 8
  %32 = load ptr, ptr %31, align 8, !tbaa !18
  %33 = getelementptr inbounds nuw i8, ptr %32, i64 8
  %34 = load ptr, ptr %33, align 8, !tbaa !20
  %35 = load i32, ptr %32, align 8, !tbaa !23
  %36 = tail call i32 @ASN1_BIT_STRING_set(ptr noundef nonnull %27, ptr noundef %34, i32 noundef %35) #9
  %.not9 = icmp eq i32 %36, 0
  br i1 %.not9, label %x509_pubkey_ex_free.exit14, label %43

x509_pubkey_ex_free.exit14:                       ; preds = %30, %26, %x509_pubkey_set0_libctx.exit
  %37 = load ptr, ptr %3, align 8, !tbaa !17
  tail call void @X509_ALGOR_free(ptr noundef %37) #9
  %38 = getelementptr inbounds nuw i8, ptr %3, i64 8
  %39 = load ptr, ptr %38, align 8, !tbaa !18
  tail call void @ASN1_BIT_STRING_free(ptr noundef %39) #9
  %40 = getelementptr inbounds nuw i8, ptr %3, i64 16
  %41 = load ptr, ptr %40, align 8, !tbaa !19
  tail call void @EVP_PKEY_free(ptr noundef %41) #9
  %42 = load ptr, ptr %11, align 8, !tbaa !16
  tail call void @CRYPTO_free(ptr noundef %42, ptr noundef nonnull @.str, i32 noundef 94) #9
  tail call void @CRYPTO_free(ptr noundef nonnull %3, ptr noundef nonnull @.str, i32 noundef 95) #9
  tail call void @ERR_new() #9
  tail call void @ERR_set_debug(ptr noundef nonnull @.str, i32 noundef 302, ptr noundef nonnull @__func__.X509_PUBKEY_dup) #9
  tail call void (i32, i32, ptr, ...) @ERR_set_error(i32 noundef 11, i32 noundef 524301, ptr noundef null) #9
  br label %x509_pubkey_ex_free.exit

43:                                               ; preds = %30
  %44 = getelementptr inbounds nuw i8, ptr %0, i64 16
  %45 = load ptr, ptr %44, align 8, !tbaa !19
  %.not10 = icmp eq ptr %45, null
  br i1 %.not10, label %x509_pubkey_ex_free.exit, label %46

46:                                               ; preds = %43
  %47 = tail call i32 @ERR_set_mark() #9
  %48 = load ptr, ptr %44, align 8, !tbaa !19
  %49 = tail call ptr @EVP_PKEY_dup(ptr noundef %48) #9
  %50 = getelementptr inbounds nuw i8, ptr %3, i64 16
  store ptr %49, ptr %50, align 8, !tbaa !19
  %51 = icmp eq ptr %49, null
  br i1 %51, label %52, label %60

52:                                               ; preds = %46
  %53 = getelementptr inbounds nuw i8, ptr %3, i64 40
  %54 = load i8, ptr %53, align 8
  %55 = or i8 %54, 1
  store i8 %55, ptr %53, align 8
  %56 = tail call fastcc i32 @x509_pubkey_decode(ptr noundef nonnull %50, ptr noundef nonnull %3)
  %57 = icmp slt i32 %56, 1
  br i1 %57, label %58, label %60

58:                                               ; preds = %52
  call void @x509_pubkey_ex_free(ptr noundef nonnull %2, ptr nonnull poison)
  %59 = call i32 @ERR_clear_last_mark() #9
  br label %x509_pubkey_ex_free.exit

60:                                               ; preds = %52, %46
  %61 = tail call i32 @ERR_pop_to_mark() #9
  br label %x509_pubkey_ex_free.exit

x509_pubkey_ex_free.exit:                         ; preds = %43, %60, %16, %1, %58, %x509_pubkey_ex_free.exit14
  %.0 = phi ptr [ null, %x509_pubkey_ex_free.exit14 ], [ null, %58 ], [ null, %1 ], [ null, %16 ], [ %3, %60 ], [ %3, %43 ]
  call void @llvm.lifetime.end.p0(i64 8, ptr nonnull %2) #9
  ret ptr %.0
}